Certificate:
    Data:
        Version: 3 (0x2)
        Serial Number:
            4f:79:5f:b4:4b:22:32:a4:39:1d:47:d9:ff:7b:0b:e0
        Signature Algorithm: ED25519
        Issuer: C=SE, L=Halmstad, O=Trust Us Certificate Authority, OU=Tailored Access Operations, CN=You_Can_Trust_Me_CA
        Validity
            Not Before: Apr 15 09:39:47 2022 GMT
            Not After : Jul 18 09:39:47 2024 GMT
        Subject: C=SE, L=Halmstad, O=Trust Us Certificate Authority, OU=Tailored Access Operations, CN=You_Can_Trust_Me_CA
        Subject Public Key Info:
            Public Key Algorithm: ED25519
                ED25519 Public-Key:
                pub:
                    72:07:4f:16:df:86:59:6e:89:47:7a:11:7d:77:ab:
                    4a:82:46:ce:a0:8f:2c:91:88:d2:ea:fa:ab:eb:34:
                    4f:7d
        X509v3 extensions:
            X509v3 Basic Constraints: critical
                CA:TRUE, pathlen:0
            X509v3 Key Usage: critical
                Certificate Sign, CRL Sign
            X509v3 Subject Key Identifier: 
                92:24:67:7A:91:E0:58:49:80:3F:60:1A:86:27:E0:FF:64:B0:75:35
    Signature Algorithm: ED25519
         bc:22:e8:e9:15:28:ee:60:6e:8b:74:0b:a0:c3:c1:e0:99:01:
         6b:4a:53:3a:c8:d6:48:d4:3c:20:ea:97:40:42:5f:b7:1f:71:
         9c:2d:dd:85:34:a8:41:97:6c:fc:fb:31:c1:c2:70:8e:40:83:
         ae:5a:fe:19:a5:80:52:ee:fe:03
-----BEGIN CERTIFICATE-----
MIICHTCCAc+gAwIBAgIQT3lftEsiMqQ5HUfZ/3sL4DAFBgMrZXAwgYwxCzAJBgNV
BAYTAlNFMREwDwYDVQQHDAhIYWxtc3RhZDEnMCUGA1UECgweVHJ1c3QgVXMgQ2Vy
dGlmaWNhdGUgQXV0aG9yaXR5MSMwIQYDVQQLDBpUYWlsb3JlZCBBY2Nlc3MgT3Bl
cmF0aW9uczEcMBoGA1UEAwwTWW91X0Nhbl9UcnVzdF9NZV9DQTAeFw0yMjA0MTUw
OTM5NDdaFw0yNDA3MTgwOTM5NDdaMIGMMQswCQYDVQQGEwJTRTERMA8GA1UEBwwI
SGFsbXN0YWQxJzAlBgNVBAoMHlRydXN0IFVzIENlcnRpZmljYXRlIEF1dGhvcml0
eTEjMCEGA1UECwwaVGFpbG9yZWQgQWNjZXNzIE9wZXJhdGlvbnMxHDAaBgNVBAMM
E1lvdV9DYW5fVHJ1c3RfTWVfQ0EwKjAFBgMrZXADIQByB08W34ZZbolHehF9d6tK
gkbOoI8skYjS6vqr6zRPfaNFMEMwEgYDVR0TAQH/BAgwBgEB/wIBADAOBgNVHQ8B
Af8EBAMCAQYwHQYDVR0OBBYEFJIkZ3qR4FhJgD9gGoYn4P9ksHU1MAUGAytlcANB
ALwi6OkVKO5gbot0C6DDweCZAWtKUzrI1kjUPCDql0BCX7cfcZwt3YU0qEGXbPz7
McHCcI5Ag65a/hmlgFLu/gM=
-----END CERTIFICATE-----
